#include <math.h>
#include <stdio.h>
#include <stdlib.h>
#include <string.h>

int main(){
    
    char n[32];
    int a,b,c,d,i,j,k,l;
    scanf("%d",&k);
    for(l=1;l<=k;l++){
    scanf("%s",n);
    b=strlen(n);
    if(n[b-1]=='g')
        b=b-3;
    if(n[b-1]=='y')
        b=b-2;
    if(n[b-1]=='r')
        b=b-2;
    for(i=0;i<b;i++)
        printf("%c",n[i]);
        printf("\n");
    }
    return 0;
}
                
                
                
                
                
                