; ModuleID = '57/2070.c'
source_filename = "57/2070.c"
target datalayout = "e-m:e-p270:32:32-p271:32:32-p272:64:64-i64:64-f80:128-n8:16:32:64-S128"
target triple = "x86_64-pc-linux-gnu"

@.str = private unnamed_addr constant [3 x i8] c"%d\00", align 1
@.str.1 = private unnamed_addr constant [3 x i8] c"%s\00", align 1
@.str.2 = private unnamed_addr constant [3 x i8] c"%c\00", align 1
@.str.3 = private unnamed_addr constant [2 x i8] c"\0A\00", align 1

; Function Attrs: noinline nounwind uwtable
define dso_local i32 @main() #0 {
  %1 = alloca i32, align 4
  %2 = alloca [32 x i8], align 16
  %3 = alloca i32, align 4
  %4 = alloca i32, align 4
  %5 = alloca i32, align 4
  %6 = alloca i32, align 4
  %7 = alloca i32, align 4
  %8 = alloca i32, align 4
  %9 = alloca i32, align 4
  %10 = alloca i32, align 4
  store i32 0, i32* %1, align 4
  %11 = call i32 (i8*, ...) @__isoc99_scanf(i8* getelementptr inbounds ([3 x i8], [3 x i8]* @.str, i64 0, i64 0), i32* %9)
  store i32 1, i32* %10, align 4
  br label %12

12:                                               ; preds = %71, %0
  %13 = load i32, i32* %10, align 4
  %14 = load i32, i32* %9, align 4
  %15 = icmp sle i32 %13, %14
  br i1 %15, label %16, label %74

16:                                               ; preds = %12
  %17 = getelementptr inbounds [32 x i8], [32 x i8]* %2, i64 0, i64 0
  %18 = call i32 (i8*, ...) @__isoc99_scanf(i8* getelementptr inbounds ([3 x i8], [3 x i8]* @.str.1, i64 0, i64 0), i8* %17)
  %19 = getelementptr inbounds [32 x i8], [32 x i8]* %2, i64 0, i64 0
  %20 = call i64 @strlen(i8* %19) #3
  %21 = trunc i64 %20 to i32
  store i32 %21, i32* %4, align 4
  %22 = load i32, i32* %4, align 4
  %23 = sub nsw i32 %22, 1
  %24 = sext i32 %23 to i64
  %25 = getelementptr inbounds [32 x i8], [32 x i8]* %2, i64 0, i64 %24
  %26 = load i8, i8* %25, align 1
  %27 = sext i8 %26 to i32
  %28 = icmp eq i32 %27, 103
  br i1 %28, label %29, label %32

29:                                               ; preds = %16
  %30 = load i32, i32* %4, align 4
  %31 = sub nsw i32 %30, 3
  store i32 %31, i32* %4, align 4
  br label %32

32:                                               ; preds = %29, %16
  %33 = load i32, i32* %4, align 4
  %34 = sub nsw i32 %33, 1
  %35 = sext i32 %34 to i64
  %36 = getelementptr inbounds [32 x i8], [32 x i8]* %2, i64 0, i64 %35
  %37 = load i8, i8* %36, align 1
  %38 = sext i8 %37 to i32
  %39 = icmp eq i32 %38, 121
  br i1 %39, label %40, label %43

40:                                               ; preds = %32
  %41 = load i32, i32* %4, align 4
  %42 = sub nsw i32 %41, 2
  store i32 %42, i32* %4, align 4
  br label %43

43:                                               ; preds = %40, %32
  %44 = load i32, i32* %4, align 4
  %45 = sub nsw i32 %44, 1
  %46 = sext i32 %45 to i64
  %47 = getelementptr inbounds [32 x i8], [32 x i8]* %2, i64 0, i64 %46
  %48 = load i8, i8* %47, align 1
  %49 = sext i8 %48 to i32
  %50 = icmp eq i32 %49, 114
  br i1 %50, label %51, label %54

51:                                               ; preds = %43
  %52 = load i32, i32* %4, align 4
  %53 = sub nsw i32 %52, 2
  store i32 %53, i32* %4, align 4
  br label %54

54:                                               ; preds = %51, %43
  store i32 0, i32* %7, align 4
  br label %55

55:                                               ; preds = %66, %54
  %56 = load i32, i32* %7, align 4
  %57 = load i32, i32* %4, align 4
  %58 = icmp slt i32 %56, %57
  br i1 %58, label %59, label %69

59:                                               ; preds = %55
  %60 = load i32, i32* %7, align 4
  %61 = sext i32 %60 to i64
  %62 = getelementptr inbounds [32 x i8], [32 x i8]* %2, i64 0, i64 %61
  %63 = load i8, i8* %62, align 1
  %64 = sext i8 %63 to i32
  %65 = call i32 (i8*, ...) @printf(i8* getelementptr inbounds ([3 x i8], [3 x i8]* @.str.2, i64 0, i64 0), i32 %64)
  br label %66

66:                                               ; preds = %59
  %67 = load i32, i32* %7, align 4
  %68 = add nsw i32 %67, 1
  store i32 %68, i32* %7, align 4
  br label %55

69:                                               ; preds = %55
  %70 = call i32 (i8*, ...) @printf(i8* getelementptr inbounds ([2 x i8], [2 x i8]* @.str.3, i64 0, i64 0))
  br label %71

71:                                               ; preds = %69
  %72 = load i32, i32* %10, align 4
  %73 = add nsw i32 %72, 1
  store i32 %73, i32* %10, align 4
  br label %12

74:                                               ; preds = %12
  ret i32 0
}

declare dso_local i32 @__isoc99_scanf(i8*, ...) #1

; Function Attrs: nounwind readonly
declare dso_local i64 @strlen(i8*) #2

declare dso_local i32 @printf(i8*, ...) #1


!llvm.module.flags = !{!0}
!llvm.ident = !{!1}

!0 = !{i32 1, !"wchar_size", i32 4}
!1 = !{!"clang version 10.0.0-4ubuntu1 "}
