; ModuleID = 'source-C-CXX/56/2070.c'
source_filename = "source-C-CXX/56/2070.c"
target datalayout = "e-m:e-p270:32:32-p271:32:32-p272:64:64-i64:64-f80:128-n8:16:32:64-S128"
target triple = "x86_64-pc-linux-gnu"

@.str = private unnamed_addr constant [3 x i8] c"%d\00", align 1
@.str.1 = private unnamed_addr constant [3 x i8] c"%s\00", align 1

; Function Attrs: nofree nounwind sspstrong uwtable
define dso_local i32 @main() local_unnamed_addr #0 {
  %1 = alloca [32 x i8], align 16
  %2 = alloca i32, align 4
  %3 = getelementptr inbounds [32 x i8], [32 x i8]* %1, i64 0, i64 0
  call void @llvm.lifetime.start.p0i8(i64 32, i8* nonnull %3) #5
  %4 = bitcast i32* %2 to i8*
  call void @llvm.lifetime.start.p0i8(i64 4, i8* nonnull %4) #5
  %5 = call i32 (i8*, ...) @__isoc99_scanf(i8* getelementptr inbounds ([3 x i8], [3 x i8]* @.str, i64 0, i64 0), i32* nonnull %2)
  %6 = load i32, i32* %2, align 4, !tbaa !5
  %7 = icmp slt i32 %6, 1
  br i1 %7, label %51, label %8

8:                                                ; preds = %0, %46
  %9 = phi i32 [ %48, %46 ], [ 1, %0 ]
  %10 = call i32 (i8*, ...) @__isoc99_scanf(i8* getelementptr inbounds ([3 x i8], [3 x i8]* @.str.1, i64 0, i64 0), i8* nonnull %3)
  %11 = call i64 @strlen(i8* noundef nonnull %3) #6
  %12 = trunc i64 %11 to i32
  %13 = shl i64 %11, 32
  %14 = add i64 %13, -4294967296
  %15 = ashr exact i64 %14, 32
  %16 = getelementptr inbounds [32 x i8], [32 x i8]* %1, i64 0, i64 %15
  %17 = load i8, i8* %16, align 1, !tbaa !9
  %18 = icmp eq i8 %17, 103
  %19 = add nsw i32 %12, -3
  %20 = select i1 %18, i32 %19, i32 %12
  %21 = add nsw i32 %20, -1
  %22 = sext i32 %21 to i64
  %23 = getelementptr inbounds [32 x i8], [32 x i8]* %1, i64 0, i64 %22
  %24 = load i8, i8* %23, align 1, !tbaa !9
  %25 = icmp eq i8 %24, 121
  %26 = add nsw i32 %20, -2
  %27 = select i1 %25, i32 %26, i32 %20
  %28 = add nsw i32 %27, -1
  %29 = sext i32 %28 to i64
  %30 = getelementptr inbounds [32 x i8], [32 x i8]* %1, i64 0, i64 %29
  %31 = load i8, i8* %30, align 1, !tbaa !9
  %32 = icmp eq i8 %31, 114
  %33 = add nsw i32 %27, -2
  %34 = select i1 %32, i32 %33, i32 %27
  %35 = icmp sgt i32 %34, 0
  br i1 %35, label %36, label %46

36:                                               ; preds = %8
  %37 = zext i32 %34 to i64
  br label %38

38:                                               ; preds = %36, %38
  %39 = phi i64 [ 0, %36 ], [ %44, %38 ]
  %40 = getelementptr inbounds [32 x i8], [32 x i8]* %1, i64 0, i64 %39
  %41 = load i8, i8* %40, align 1, !tbaa !9
  %42 = sext i8 %41 to i32
  %43 = call i32 @putchar(i32 %42)
  %44 = add nuw nsw i64 %39, 1
  %45 = icmp eq i64 %44, %37
  br i1 %45, label %46, label %38, !llvm.loop !10

46:                                               ; preds = %38, %8
  %47 = call i32 @putchar(i32 10)
  %48 = add nuw nsw i32 %9, 1
  %49 = load i32, i32* %2, align 4, !tbaa !5
  %50 = icmp slt i32 %9, %49
  br i1 %50, label %8, label %51, !llvm.loop !12

51:                                               ; preds = %46, %0
  call void @llvm.lifetime.end.p0i8(i64 4, i8* nonnull %4) #5
  call void @llvm.lifetime.end.p0i8(i64 32, i8* nonnull %3) #5
  ret i32 0
}

; Function Attrs: argmemonly mustprogress nofree nosync nounwind willreturn
declare void @llvm.lifetime.start.p0i8(i64 immarg, i8* nocapture) #1

; Function Attrs: nofree nounwind
declare noundef i32 @__isoc99_scanf(i8* nocapture noundef readonly, ...) local_unnamed_addr #2

; Function Attrs: argmemonly mustprogress nofree nounwind readonly willreturn
declare i64 @strlen(i8* nocapture) local_unnamed_addr #3

; Function Attrs: argmemonly mustprogress nofree nosync nounwind willreturn
declare void @llvm.lifetime.end.p0i8(i64 immarg, i8* nocapture) #1

; Function Attrs: nofree nounwind
declare noundef i32 @putchar(i32 noundef) local_unnamed_addr #4


!llvm.module.flags = !{!0, !1, !2, !3}
!llvm.ident = !{!4}

!0 = !{i32 1, !"wchar_size", i32 4}
!1 = !{i32 7, !"PIC Level", i32 2}
!2 = !{i32 7, !"PIE Level", i32 2}
!3 = !{i32 7, !"uwtable", i32 1}
!4 = !{!"clang version 13.0.0"}
!5 = !{!6, !6, i64 0}
!6 = !{!"int", !7, i64 0}
!7 = !{!"omnipotent char", !8, i64 0}
!8 = !{!"Simple C/C++ TBAA"}
!9 = !{!7, !7, i64 0}
!10 = distinct !{!10, !11}
!11 = !{!"llvm.loop.mustprogress"}
!12 = distinct !{!12, !11}
